target datalayout = "e-m:e-p270:32:32-p271:32:32-p272:64:64-i64:64-i128:128-f80:128-n8:16:32:64-S128"
target triple = "x86_64-pc-linux-gnu"

%struct.Trigger = type { i32, ptr, i32, i16, i8, i8, i8, i32, i32, i32, i8, i8, i16, i16, ptr, ptr, ptr, ptr, ptr }
%struct.TriggerDesc = type { ptr, i32, i8, i8, i8, i8, i8, i8, i8, i8, i8, i8, i8, i8, i8, i8, i8, i8, i8, i8, i8, i8, i8 }
%struct.TriggerData = type { i32, i32, ptr, ptr, ptr, ptr, ptr, ptr, ptr, ptr, ptr }
%struct.ResultRelInfo = type { i32, i32, ptr, i32, ptr, ptr, i16, ptr, i8, ptr, ptr, ptr, i8, i8, ptr, ptr, ptr, ptr, ptr, ptr, ptr, ptr, ptr, ptr, i8, i32, i32, i32, ptr, ptr, ptr, ptr, ptr, ptr, ptr, i32, i32, ptr, ptr, ptr, ptr, [3 x ptr], ptr, ptr, ptr, i8, ptr, i8, ptr, ptr, ptr, ptr }
%struct.EState = type { i32, i32, ptr, ptr, ptr, i32, ptr, ptr, ptr, ptr, ptr, ptr, ptr, ptr, ptr, ptr, i32, ptr, ptr, ptr, ptr, ptr, ptr, ptr, ptr, ptr, ptr, i64, i64, i32, i32, i8, ptr, ptr, ptr, ptr, ptr, i8, i32, i32, ptr, i32, ptr, ptr, ptr, ptr }
%struct.ExprContext = type { i32, ptr, ptr, ptr, ptr, ptr, ptr, ptr, ptr, ptr, i64, i8, i64, i8, ptr, ptr, ptr, ptr }

; Function Attrs: nounwind uwtable
define dso_local zeroext i1 @ExecIRUpdateTriggers(ptr noundef %0, ptr noundef %1, ptr noundef %2, ptr noundef %3) #0 {
  %5 = alloca i1, align 1
  %6 = alloca ptr, align 8
  %7 = alloca ptr, align 8
  %8 = alloca ptr, align 8
  %9 = alloca ptr, align 8
  %10 = alloca ptr, align 8
  %11 = alloca ptr, align 8
  %12 = alloca ptr, align 8
  %13 = alloca i8, align 1
  %14 = alloca %struct.TriggerData, align 8
  %15 = alloca i32, align 4
  %16 = alloca ptr, align 8
  %17 = alloca ptr, align 8
  %18 = alloca i32, align 4
  store ptr %0, ptr %6, align 8
  store ptr %1, ptr %7, align 8
  store ptr %2, ptr %8, align 8
  store ptr %3, ptr %9, align 8
  call void @llvm.lifetime.start.p0(i64 8, ptr %10) #12
  %19 = load ptr, ptr %7, align 8
  %20 = getelementptr inbounds nuw %struct.ResultRelInfo, ptr %19, i32 0, i32 14
  %21 = load ptr, ptr %20, align 8
  store ptr %21, ptr %10, align 8
  call void @llvm.lifetime.start.p0(i64 8, ptr %11) #12
  %22 = load ptr, ptr %6, align 8
  %23 = load ptr, ptr %7, align 8
  %24 = call ptr @ExecGetTriggerOldSlot(ptr noundef %22, ptr noundef %23)
  store ptr %24, ptr %11, align 8
  call void @llvm.lifetime.start.p0(i64 8, ptr %12) #12
  store ptr null, ptr %12, align 8
  call void @llvm.lifetime.start.p0(i64 1, ptr %13) #12
  call void @llvm.lifetime.start.p0(i64 80, ptr %14) #12
  call void @llvm.memset.p0.i64(ptr align 8 %14, i8 0, i64 80, i1 false)
  call void @llvm.lifetime.start.p0(i64 4, ptr %15) #12
  %25 = getelementptr inbounds nuw %struct.TriggerData, ptr %14, i32 0, i32 0
  store i32 441, ptr %25, align 8
  %26 = getelementptr inbounds nuw %struct.TriggerData, ptr %14, i32 0, i32 1
  store i32 22, ptr %26, align 4
  %27 = load ptr, ptr %7, align 8
  %28 = getelementptr inbounds nuw %struct.ResultRelInfo, ptr %27, i32 0, i32 2
  %29 = load ptr, ptr %28, align 8
  %30 = getelementptr inbounds nuw %struct.TriggerData, ptr %14, i32 0, i32 2
  store ptr %29, ptr %30, align 8
  %31 = load ptr, ptr %8, align 8
  %32 = load ptr, ptr %11, align 8
  call void @ExecForceStoreHeapTuple(ptr noundef %31, ptr noundef %32, i1 noundef zeroext false)
  store i32 0, ptr %15, align 4
  br label %33

33:                                               ; preds = %123, %4
  %34 = load i32, ptr %15, align 4
  %35 = load ptr, ptr %10, align 8
  %36 = getelementptr inbounds nuw %struct.TriggerDesc, ptr %35, i32 0, i32 1
  %37 = load i32, ptr %36, align 8
  %38 = icmp slt i32 %34, %37
  br i1 %38, label %39, label %126

39:                                               ; preds = %33
  call void @llvm.lifetime.start.p0(i64 8, ptr %16) #12
  %40 = load ptr, ptr %10, align 8
  %41 = getelementptr inbounds nuw %struct.TriggerDesc, ptr %40, i32 0, i32 0
  %42 = load ptr, ptr %41, align 8
  %43 = load i32, ptr %15, align 4
  %44 = sext i32 %43 to i64
  %45 = getelementptr inbounds %struct.Trigger, ptr %42, i64 %44
  store ptr %45, ptr %16, align 8
  call void @llvm.lifetime.start.p0(i64 8, ptr %17) #12
  %46 = load ptr, ptr %16, align 8
  %47 = getelementptr inbounds nuw %struct.Trigger, ptr %46, i32 0, i32 3
  %48 = load i16, ptr %47, align 4
  %49 = sext i16 %48 to i32
  %50 = and i32 %49, 83
  %51 = icmp eq i32 %50, 81
  br i1 %51, label %53, label %52

52:                                               ; preds = %39
  store i32 4, ptr %18, align 4
  br label %120

53:                                               ; preds = %39
  %54 = load ptr, ptr %6, align 8
  %55 = load ptr, ptr %7, align 8
  %56 = load ptr, ptr %16, align 8
  %57 = getelementptr inbounds nuw %struct.TriggerData, ptr %14, i32 0, i32 1
  %58 = load i32, ptr %57, align 4
  %59 = load ptr, ptr %11, align 8
  %60 = load ptr, ptr %9, align 8
  %61 = call zeroext i1 @TriggerEnabled(ptr noundef %54, ptr noundef %55, ptr noundef %56, i32 noundef %58, ptr noundef null, ptr noundef %59, ptr noundef %60)
  br i1 %61, label %63, label %62

62:                                               ; preds = %53
  store i32 4, ptr %18, align 4
  br label %120

63:                                               ; preds = %53
  %64 = load ptr, ptr %12, align 8
  %65 = icmp ne ptr %64, null
  br i1 %65, label %69, label %66

66:                                               ; preds = %63
  %67 = load ptr, ptr %9, align 8
  %68 = call ptr @ExecFetchSlotHeapTuple(ptr noundef %67, i1 noundef zeroext true, ptr noundef %13)
  store ptr %68, ptr %12, align 8
  br label %69

69:                                               ; preds = %66, %63
  %70 = load ptr, ptr %11, align 8
  %71 = getelementptr inbounds nuw %struct.TriggerData, ptr %14, i32 0, i32 6
  store ptr %70, ptr %71, align 8
  %72 = load ptr, ptr %8, align 8
  %73 = getelementptr inbounds nuw %struct.TriggerData, ptr %14, i32 0, i32 3
  store ptr %72, ptr %73, align 8
  %74 = load ptr, ptr %9, align 8
  %75 = getelementptr inbounds nuw %struct.TriggerData, ptr %14, i32 0, i32 7
  store ptr %74, ptr %75, align 8
  %76 = load ptr, ptr %12, align 8
  store ptr %76, ptr %17, align 8
  %77 = getelementptr inbounds nuw %struct.TriggerData, ptr %14, i32 0, i32 4
  store ptr %76, ptr %77, align 8
  %78 = load ptr, ptr %16, align 8
  %79 = getelementptr inbounds nuw %struct.TriggerData, ptr %14, i32 0, i32 5
  store ptr %78, ptr %79, align 8
  %80 = load i32, ptr %15, align 4
  %81 = load ptr, ptr %7, align 8
  %82 = getelementptr inbounds nuw %struct.ResultRelInfo, ptr %81, i32 0, i32 15
  %83 = load ptr, ptr %82, align 8
  %84 = load ptr, ptr %7, align 8
  %85 = getelementptr inbounds nuw %struct.ResultRelInfo, ptr %84, i32 0, i32 17
  %86 = load ptr, ptr %85, align 8
  %87 = load ptr, ptr %6, align 8
  %88 = getelementptr inbounds nuw %struct.EState, ptr %87, i32 0, i32 35
  %89 = load ptr, ptr %88, align 8
  %90 = icmp ne ptr %89, null
  br i1 %90, label %91, label %95

91:                                               ; preds = %69
  %92 = load ptr, ptr %6, align 8
  %93 = getelementptr inbounds nuw %struct.EState, ptr %92, i32 0, i32 35
  %94 = load ptr, ptr %93, align 8
  br label %98

95:                                               ; preds = %69
  %96 = load ptr, ptr %6, align 8
  %97 = call ptr @MakePerTupleExprContext(ptr noundef %96)
  br label %98

98:                                               ; preds = %95, %91
  %99 = phi ptr [ %94, %91 ], [ %97, %95 ]
  %100 = getelementptr inbounds nuw %struct.ExprContext, ptr %99, i32 0, i32 5
  %101 = load ptr, ptr %100, align 8
  %102 = call ptr @ExecCallTriggerFunc(ptr noundef %14, i32 noundef %80, ptr noundef %83, ptr noundef %86, ptr noundef %101)
  store ptr %102, ptr %12, align 8
  %103 = load ptr, ptr %12, align 8
  %104 = icmp eq ptr %103, null
  br i1 %104, label %105, label %106

105:                                              ; preds = %98
  store i1 false, ptr %5, align 1
  store i32 1, ptr %18, align 4
  br label %120

106:                                              ; preds = %98
  %107 = load ptr, ptr %12, align 8
  %108 = load ptr, ptr %17, align 8
  %109 = icmp ne ptr %107, %108
  br i1 %109, label %110, label %118

110:                                              ; preds = %106
  %111 = load ptr, ptr %12, align 8
  %112 = load ptr, ptr %9, align 8
  call void @ExecForceStoreHeapTuple(ptr noundef %111, ptr noundef %112, i1 noundef zeroext false)
  %113 = load i8, ptr %13, align 1, !range !4, !noundef !5
  %114 = trunc i8 %113 to i1
  br i1 %114, label %115, label %117

115:                                              ; preds = %110
  %116 = load ptr, ptr %17, align 8
  call void @heap_freetuple(ptr noundef %116)
  br label %117

117:                                              ; preds = %115, %110
  store ptr null, ptr %12, align 8
  br label %118

118:                                              ; preds = %117, %106
  br label %119

119:                                              ; preds = %118
  store i32 0, ptr %18, align 4
  br label %120

120:                                              ; preds = %119, %105, %62, %52
  call void @llvm.lifetime.end.p0(i64 8, ptr %17) #12
  call void @llvm.lifetime.end.p0(i64 8, ptr %16) #12
  %121 = load i32, ptr %18, align 4
  switch i32 %121, label %127 [
    i32 0, label %122
    i32 4, label %123
  ]

122:                                              ; preds = %120
  br label %123

123:                                              ; preds = %122, %120
  %124 = load i32, ptr %15, align 4
  %125 = add i32 %124, 1
  store i32 %125, ptr %15, align 4
  br label %33, !llvm.loop !41

126:                                              ; preds = %33
  store i1 true, ptr %5, align 1
  store i32 1, ptr %18, align 4
  br label %127

127:                                              ; preds = %126, %120
  call void @llvm.lifetime.end.p0(i64 4, ptr %15) #12
  call void @llvm.lifetime.end.p0(i64 80, ptr %14) #12
  call void @llvm.lifetime.end.p0(i64 1, ptr %13) #12
  call void @llvm.lifetime.end.p0(i64 8, ptr %12) #12
  call void @llvm.lifetime.end.p0(i64 8, ptr %11) #12
  call void @llvm.lifetime.end.p0(i64 8, ptr %10) #12
  %128 = load i1, ptr %5, align 1
  ret i1 %128
}