; Function Attrs: nounwind uwtable
define dso_local noundef zeroext i1 @ExecIRUpdateTriggers(ptr noundef %0, ptr noundef %1, ptr noundef %2, ptr noundef %3) local_unnamed_addr #0 {
  %5 = alloca i8, align 1
  %6 = alloca %struct.TriggerData, align 8
  %7 = getelementptr inbounds nuw i8, ptr %1, i64 96
  %8 = load ptr, ptr %7, align 8
  %9 = tail call ptr @ExecGetTriggerOldSlot(ptr noundef %0, ptr noundef %1) #16
  call void @llvm.lifetime.start.p0(i64 1, ptr nonnull %5) #16
  call void @llvm.lifetime.start.p0(i64 80, ptr nonnull %6) #16
  %10 = getelementptr inbounds nuw i8, ptr %6, i64 16
  call void @llvm.memset.p0.i64(ptr noundef nonnull align 8 dereferenceable(80) %10, i8 0, i64 64, i1 false)
  store i32 441, ptr %6, align 8
  %11 = getelementptr inbounds nuw i8, ptr %6, i64 4
  store i32 22, ptr %11, align 4
  %12 = getelementptr inbounds nuw i8, ptr %1, i64 8
  %13 = load ptr, ptr %12, align 8
  %14 = getelementptr inbounds nuw i8, ptr %6, i64 8
  store ptr %13, ptr %14, align 8
  tail call void @ExecForceStoreHeapTuple(ptr noundef %2, ptr noundef %9, i1 noundef zeroext false) #16
  %15 = getelementptr inbounds nuw i8, ptr %8, i64 8
  %16 = load i32, ptr %15, align 8
  %17 = icmp slt i32 %16, 1
  br i1 %17, label %._crit_edge, label %.lr.ph

.lr.ph:                                           ; preds = %4
  %18 = getelementptr inbounds nuw i8, ptr %6, i64 40
  %19 = getelementptr inbounds nuw i8, ptr %6, i64 16
  %20 = getelementptr inbounds nuw i8, ptr %6, i64 48
  %21 = getelementptr inbounds nuw i8, ptr %6, i64 24
  %22 = getelementptr inbounds nuw i8, ptr %6, i64 32
  %23 = getelementptr inbounds nuw i8, ptr %1, i64 104
  %24 = getelementptr inbounds nuw i8, ptr %1, i64 120
  %25 = getelementptr inbounds nuw i8, ptr %0, i64 264
  br label %26

26:                                               ; preds = %.lr.ph, %57
  %indvars.iv = phi i64 [ 0, %.lr.ph ], [ %indvars.iv.next, %57 ]
  %.03851 = phi ptr [ null, %.lr.ph ], [ %.139.ph, %57 ]
  %27 = load ptr, ptr %8, align 8
  %28 = getelementptr inbounds nuw %struct.Trigger, ptr %27, i64 %indvars.iv
  %29 = getelementptr inbounds nuw i8, ptr %28, i64 20
  %30 = load i16, ptr %29, align 4
  %31 = and i16 %30, 83
  %32 = icmp eq i16 %31, 81
  br i1 %32, label %33, label %57

33:                                               ; preds = %26
  %34 = load i32, ptr %11, align 4
  %35 = call fastcc zeroext i1 @TriggerEnabled(ptr noundef %0, ptr noundef %1, ptr noundef nonnull %28, i32 noundef %34, ptr noundef null, ptr noundef %9, ptr noundef %3)
  br i1 %35, label %36, label %57

36:                                               ; preds = %33
  %.not = icmp eq ptr %.03851, null
  br i1 %.not, label %37, label %39

37:                                               ; preds = %36
  %38 = call ptr @ExecFetchSlotHeapTuple(ptr noundef %3, i1 noundef zeroext true, ptr noundef nonnull %5) #16
  br label %39

39:                                               ; preds = %37, %36
  %.240 = phi ptr [ %.03851, %36 ], [ %38, %37 ]
  store ptr %9, ptr %18, align 8
  store ptr %2, ptr %19, align 8
  store ptr %3, ptr %20, align 8
  store ptr %.240, ptr %21, align 8
  store ptr %28, ptr %22, align 8
  %40 = load ptr, ptr %23, align 8
  %41 = load ptr, ptr %24, align 8
  %42 = load ptr, ptr %25, align 8
  %.not45 = icmp eq ptr %42, null
  br i1 %.not45, label %43, label %45

43:                                               ; preds = %39
  %44 = call ptr @MakePerTupleExprContext(ptr noundef nonnull %0) #16
  br label %45

45:                                               ; preds = %39, %43
  %46 = phi ptr [ %44, %43 ], [ %42, %39 ]
  %47 = getelementptr inbounds nuw i8, ptr %46, i64 40
  %48 = load ptr, ptr %47, align 8
  %49 = trunc nuw nsw i64 %indvars.iv to i32
  %50 = call fastcc ptr @ExecCallTriggerFunc(ptr noundef %6, i32 noundef %49, ptr noundef %40, ptr noundef %41, ptr noundef %48)
  %51 = icmp eq ptr %50, null
  br i1 %51, label %._crit_edge, label %52

52:                                               ; preds = %45
  %.not46 = icmp eq ptr %50, %.240
  br i1 %.not46, label %57, label %53

53:                                               ; preds = %52
  call void @ExecForceStoreHeapTuple(ptr noundef nonnull %50, ptr noundef %3, i1 noundef zeroext false) #16
  %54 = load i8, ptr %5, align 1, !range !4, !noundef !5
  %55 = trunc nuw i8 %54 to i1
  br i1 %55, label %56, label %57

56:                                               ; preds = %53
  call void @heap_freetuple(ptr noundef %.240) #16
  br label %57

57:                                               ; preds = %26, %33, %53, %56, %52
  %.139.ph = phi ptr [ null, %53 ], [ null, %56 ], [ %50, %52 ], [ %.03851, %33 ], [ %.03851, %26 ]
  %indvars.iv.next = add nuw nsw i64 %indvars.iv, 1
  %58 = load i32, ptr %15, align 8
  %59 = sext i32 %58 to i64
  %.not54 = icmp slt i64 %indvars.iv.next, %59
  br i1 %.not54, label %26, label %._crit_edge, !llvm.loop !40

._crit_edge:                                      ; preds = %57, %45, %4
  %.lcssa = phi i1 [ true, %4 ], [ false, %45 ], [ true, %57 ]
  call void @llvm.lifetime.end.p0(i64 80, ptr nonnull %6) #16
  call void @llvm.lifetime.end.p0(i64 1, ptr nonnull %5) #16
  ret i1 %.lcssa
}